; Function Attrs: nounwind uwtable
define internal void @dtgtk_reset_label_class_intern_init(ptr noundef %0) #0 {
  %2 = tail call ptr @g_type_class_peek_parent(ptr noundef %0) #7
  store ptr %2, ptr @dtgtk_reset_label_parent_class, align 8, !tbaa !88
  %3 = load i32, ptr @GtkDarktableResetLabel_private_offset, align 4, !tbaa !89
  %.not = icmp eq i32 %3, 0
  br i1 %.not, label %5, label %4

4:                                                ; preds = %1
  tail call void @g_type_class_adjust_private_offset(ptr noundef %0, ptr noundef nonnull @GtkDarktableResetLabel_private_offset) #7
  br label %5

5:                                                ; preds = %4, %1
  ret void
}